; Function Attrs: mustprogress uwtable
define void @_ZN5faiss10IndexIVFPQ16precompute_tableEv(ptr noundef nonnull align 8 dereferenceable(544) %0) local_unnamed_addr #2 align 2 {
  %2 = getelementptr inbounds nuw i8, ptr %0, i64 516
  %3 = getelementptr inbounds nuw i8, ptr %0, i64 48
  %4 = load ptr, ptr %3, align 8, !tbaa !47
  %5 = getelementptr inbounds nuw i8, ptr %0, i64 272
  %6 = getelementptr inbounds nuw i8, ptr %0, i64 520
  %7 = getelementptr inbounds nuw i8, ptr %0, i64 264
  %8 = load i8, ptr %7, align 8, !tbaa !20, !range !45, !noundef !46
  %9 = trunc nuw i8 %8 to i1
  %10 = getelementptr inbounds nuw i8, ptr %0, i64 24
  %11 = load i8, ptr %10, align 8, !tbaa !66, !range !45, !noundef !46
  %12 = trunc nuw i8 %11 to i1
  tail call void @_ZN5faiss34initialize_IVFPQ_precomputed_tableERiPKNS_5IndexERKNS_16ProductQuantizerERNS_12AlignedTableIfLi32EEEbb(ptr noundef nonnull align 4 dereferenceable(4) %2, ptr noundef %4, ptr noundef nonnull align 8 dereferenceable(216) %5, ptr noundef nonnull align 8 dereferenceable(24) %6, i1 noundef zeroext %9, i1 noundef zeroext %12)
  ret void
}